; Function Attrs: nounwind uwtable
define hidden range(i32 0, 2) i32 @HMAC_Final(ptr noundef %ctx, ptr noundef %out, ptr noundef %out_len) local_unnamed_addr #0 {
entry:
  %i = alloca i32, align 4
  %buf = alloca [64 x i8], align 16
  %md_ctx = getelementptr inbounds nuw i8, ptr %ctx, i64 8
  %call = call i32 @EVP_DigestFinal_ex(ptr noundef nonnull %md_ctx, ptr noundef nonnull %buf, ptr noundef nonnull %i) #5
  %tobool.not = icmp eq i32 %call, 0
  br i1 %tobool.not, label %if.then, label %lor.lhs.false

lor.lhs.false:                                    ; preds = %entry
  %o_ctx = getelementptr inbounds nuw i8, ptr %ctx, i64 72
  %call2 = call i32 @EVP_MD_CTX_copy_ex(ptr noundef nonnull %md_ctx, ptr noundef nonnull %o_ctx) #5
  %tobool3.not = icmp eq i32 %call2, 0
  br i1 %tobool3.not, label %if.then, label %lor.lhs.false4

lor.lhs.false4:                                   ; preds = %lor.lhs.false
  %0 = load i32, ptr %i, align 4
  %conv = zext i32 %0 to i64
  %call7 = call i32 @EVP_DigestUpdate(ptr noundef nonnull %md_ctx, ptr noundef nonnull %buf, i64 noundef %conv) #5
  %tobool8.not = icmp eq i32 %call7, 0
  br i1 %tobool8.not, label %if.then, label %lor.lhs.false9

lor.lhs.false9:                                   ; preds = %lor.lhs.false4
  %call11 = call i32 @EVP_DigestFinal_ex(ptr noundef nonnull %md_ctx, ptr noundef %out, ptr noundef %out_len) #5
  %tobool12.not = icmp eq i32 %call11, 0
  br i1 %tobool12.not, label %if.then, label %return

if.then:                                          ; preds = %lor.lhs.false9, %lor.lhs.false4, %lor.lhs.false, %entry
  store i32 0, ptr %out_len, align 4
  br label %return

return:                                           ; preds = %lor.lhs.false9, %if.then
  %retval.0 = phi i32 [ 0, %if.then ], [ 1, %lor.lhs.false9 ]
  ret i32 %retval.0
}